target datalayout = "e-m:e-p270:32:32-p271:32:32-p272:64:64-i64:64-i128:128-f80:128-n8:16:32:64-S128"
target triple = "x86_64-pc-linux-gnu"

%struct.uv_pipe_s = type { ptr, ptr, i32, ptr, %struct.uv__queue, %union.anon, ptr, i32, i64, ptr, ptr, ptr, ptr, %struct.uv__io_s, %struct.uv__queue, %struct.uv__queue, ptr, i32, i32, ptr, i32, ptr }
%union.anon = type { [4 x ptr] }
%struct.uv__io_s = type { ptr, %struct.uv__queue, %struct.uv__queue, i32, i32, i32 }
%struct.uv__queue = type { ptr, ptr }
%struct.sockaddr_un = type { i16, [108 x i8] }
%struct.stat = type { i64, i64, i64, i32, i32, i32, i32, i64, i64, i64, i64, %struct.timespec, %struct.timespec, %struct.timespec, [3 x i64] }
%struct.timespec = type { i64, i64 }

; Function Attrs: nounwind uwtable
define internal i32 @uv__pipe_getsockpeername(ptr noundef %0, ptr noundef %1, ptr noundef %2, ptr noundef %3) #0 {
  %5 = alloca i32, align 4
  %6 = alloca ptr, align 8
  %7 = alloca ptr, align 8
  %8 = alloca ptr, align 8
  %9 = alloca ptr, align 8
  %10 = alloca %struct.sockaddr_un, align 2
  %11 = alloca i32, align 4
  %12 = alloca i64, align 8
  %13 = alloca ptr, align 8
  %14 = alloca i32, align 4
  %15 = alloca i32, align 4
  store ptr %0, ptr %6, align 8
  store ptr %1, ptr %7, align 8
  store ptr %2, ptr %8, align 8
  store ptr %3, ptr %9, align 8
  call void @llvm.lifetime.start.p0(i64 110, ptr %10) #10
  call void @llvm.lifetime.start.p0(i64 4, ptr %11) #10
  call void @llvm.lifetime.start.p0(i64 8, ptr %12) #10
  call void @llvm.lifetime.start.p0(i64 8, ptr %13) #10
  call void @llvm.lifetime.start.p0(i64 4, ptr %14) #10
  %16 = load ptr, ptr %8, align 8
  %17 = icmp eq ptr %16, null
  br i1 %17, label %25, label %18

18:                                               ; preds = %4
  %19 = load ptr, ptr %9, align 8
  %20 = icmp eq ptr %19, null
  br i1 %20, label %25, label %21

21:                                               ; preds = %18
  %22 = load ptr, ptr %9, align 8
  %23 = load i64, ptr %22, align 8
  %24 = icmp eq i64 %23, 0
  br i1 %24, label %25, label %26

25:                                               ; preds = %21, %18, %4
  store i32 -22, ptr %5, align 4
  store i32 1, ptr %15, align 4
  br label %100

26:                                               ; preds = %21
  store i32 110, ptr %11, align 4
  %27 = load i32, ptr %11, align 4
  %28 = zext i32 %27 to i64
  call void @llvm.memset.p0.i64(ptr align 2 %10, i8 0, i64 %28, i1 false)
  %29 = load ptr, ptr %6, align 8
  %30 = load ptr, ptr %7, align 8
  %31 = call i32 @uv__getsockpeername(ptr noundef %29, ptr noundef %30, ptr noundef %10, ptr noundef %11)
  store i32 %31, ptr %14, align 4
  %32 = load i32, ptr %14, align 4
  %33 = icmp slt i32 %32, 0
  br i1 %33, label %34, label %37

34:                                               ; preds = %26
  %35 = load ptr, ptr %9, align 8
  store i64 0, ptr %35, align 8
  %36 = load i32, ptr %14, align 4
  store i32 %36, ptr %5, align 4
  store i32 1, ptr %15, align 4
  br label %100

37:                                               ; preds = %26
  store i64 1, ptr %12, align 8
  %38 = getelementptr inbounds nuw %struct.sockaddr_un, ptr %10, i32 0, i32 1
  %39 = getelementptr inbounds [108 x i8], ptr %38, i64 0, i64 0
  %40 = load i8, ptr %39, align 2
  %41 = sext i8 %40 to i32
  %42 = icmp eq i32 %41, 0
  br i1 %42, label %43, label %48

43:                                               ; preds = %37
  store i64 0, ptr %12, align 8
  %44 = load i32, ptr %11, align 4
  %45 = zext i32 %44 to i64
  %46 = sub i64 %45, 2
  %47 = trunc i64 %46 to i32
  store i32 %47, ptr %11, align 4
  br label %66

48:                                               ; preds = %37
  %49 = getelementptr inbounds nuw %struct.sockaddr_un, ptr %10, i32 0, i32 1
  %50 = getelementptr inbounds [108 x i8], ptr %49, i64 0, i64 0
  %51 = call ptr @memchr(ptr noundef %50, i32 noundef 0, i64 noundef 108) #9
  store ptr %51, ptr %13, align 8
  %52 = load ptr, ptr %13, align 8
  %53 = icmp eq ptr %52, null
  br i1 %53, label %54, label %58

54:                                               ; preds = %48
  %55 = getelementptr inbounds nuw %struct.sockaddr_un, ptr %10, i32 0, i32 1
  %56 = getelementptr inbounds [108 x i8], ptr %55, i64 0, i64 0
  %57 = getelementptr inbounds nuw i8, ptr %56, i64 108
  store ptr %57, ptr %13, align 8
  br label %58

58:                                               ; preds = %54, %48
  %59 = load ptr, ptr %13, align 8
  %60 = getelementptr inbounds nuw %struct.sockaddr_un, ptr %10, i32 0, i32 1
  %61 = getelementptr inbounds [108 x i8], ptr %60, i64 0, i64 0
  %62 = ptrtoint ptr %59 to i64
  %63 = ptrtoint ptr %61 to i64
  %64 = sub i64 %62, %63
  %65 = trunc i64 %64 to i32
  store i32 %65, ptr %11, align 4
  br label %66

66:                                               ; preds = %58, %43
  %67 = load i32, ptr %11, align 4
  %68 = zext i32 %67 to i64
  %69 = load i64, ptr %12, align 8
  %70 = add i64 %68, %69
  %71 = load ptr, ptr %9, align 8
  %72 = load i64, ptr %71, align 8
  %73 = icmp ugt i64 %70, %72
  br i1 %73, label %74, label %80

74:                                               ; preds = %66
  %75 = load i32, ptr %11, align 4
  %76 = zext i32 %75 to i64
  %77 = load i64, ptr %12, align 8
  %78 = add i64 %76, %77
  %79 = load ptr, ptr %9, align 8
  store i64 %78, ptr %79, align 8
  store i32 -105, ptr %5, align 4
  store i32 1, ptr %15, align 4
  br label %100

80:                                               ; preds = %66
  %81 = load ptr, ptr %8, align 8
  %82 = getelementptr inbounds nuw %struct.sockaddr_un, ptr %10, i32 0, i32 1
  %83 = getelementptr inbounds [108 x i8], ptr %82, i64 0, i64 0
  %84 = load i32, ptr %11, align 4
  %85 = zext i32 %84 to i64
  call void @llvm.memcpy.p0.p0.i64(ptr align 1 %81, ptr align 2 %83, i64 %85, i1 false)
  %86 = load i32, ptr %11, align 4
  %87 = zext i32 %86 to i64
  %88 = load ptr, ptr %9, align 8
  store i64 %87, ptr %88, align 8
  %89 = load ptr, ptr %8, align 8
  %90 = getelementptr inbounds i8, ptr %89, i64 0
  %91 = load i8, ptr %90, align 1
  %92 = sext i8 %91 to i32
  %93 = icmp ne i32 %92, 0
  br i1 %93, label %94, label %99

94:                                               ; preds = %80
  %95 = load ptr, ptr %8, align 8
  %96 = load i32, ptr %11, align 4
  %97 = zext i32 %96 to i64
  %98 = getelementptr inbounds nuw i8, ptr %95, i64 %97
  store i8 0, ptr %98, align 1
  br label %99

99:                                               ; preds = %94, %80
  store i32 0, ptr %5, align 4
  store i32 1, ptr %15, align 4
  br label %100

100:                                              ; preds = %99, %74, %34, %25
  call void @llvm.lifetime.end.p0(i64 4, ptr %14) #10
  call void @llvm.lifetime.end.p0(i64 8, ptr %13) #10
  call void @llvm.lifetime.end.p0(i64 8, ptr %12) #10
  call void @llvm.lifetime.end.p0(i64 4, ptr %11) #10
  call void @llvm.lifetime.end.p0(i64 110, ptr %10) #10
  %101 = load i32, ptr %5, align 4
  ret i32 %101
}

; Function Attrs: nounwind uwtable
define internal i32 @uv__stat(ptr noundef %0, ptr noundef %1) #0 {
  %3 = alloca ptr, align 8
  %4 = alloca ptr, align 8
  %5 = alloca i32, align 4
  store ptr %0, ptr %3, align 8
  store ptr %1, ptr %4, align 8
  call void @llvm.lifetime.start.p0(i64 4, ptr %5) #10
  %6 = load ptr, ptr %3, align 8
  %7 = load ptr, ptr %4, align 8
  %8 = call i32 @stat64(ptr noundef %6, ptr noundef %7) #10
  store i32 %8, ptr %5, align 4
  %9 = load i32, ptr %5, align 4
  %10 = icmp sge i32 %9, 0
  br i1 %10, label %11, label %15

11:                                               ; preds = %2
  br label %12

12:                                               ; preds = %11
  br label %13

13:                                               ; preds = %12
  br label %14

14:                                               ; preds = %13
  br label %15

15:                                               ; preds = %14, %2
  %16 = load i32, ptr %5, align 4
  call void @llvm.lifetime.end.p0(i64 4, ptr %5) #10
  ret i32 %16
}

; Function Attrs: nounwind uwtable
define dso_local i32 @uv_pipe_getsockname(ptr noundef %0, ptr noundef %1, ptr noundef %2) #0 {
  %4 = alloca ptr, align 8
  %5 = alloca ptr, align 8
  %6 = alloca ptr, align 8
  store ptr %0, ptr %4, align 8
  store ptr %1, ptr %5, align 8
  store ptr %2, ptr %6, align 8
  %7 = load ptr, ptr %4, align 8
  %8 = load ptr, ptr %5, align 8
  %9 = load ptr, ptr %6, align 8
  %10 = call i32 @uv__pipe_getsockpeername(ptr noundef %7, ptr noundef @getsockname, ptr noundef %8, ptr noundef %9)
  ret i32 %10
}

; Function Attrs: nounwind uwtable
define dso_local i32 @uv_pipe_chmod(ptr noundef %0, i32 noundef %1) #0 {
  %3 = alloca i32, align 4
  %4 = alloca ptr, align 8
  %5 = alloca i32, align 4
  %6 = alloca i32, align 4
  %7 = alloca %struct.stat, align 8
  %8 = alloca [4097 x i8], align 16
  %9 = alloca i64, align 8
  %10 = alloca i32, align 4
  %11 = alloca i32, align 4
  store ptr %0, ptr %4, align 8
  store i32 %1, ptr %5, align 4
  call void @llvm.lifetime.start.p0(i64 4, ptr %6) #10
  call void @llvm.lifetime.start.p0(i64 144, ptr %7) #10
  call void @llvm.lifetime.start.p0(i64 4097, ptr %8) #10
  call void @llvm.lifetime.start.p0(i64 8, ptr %9) #10
  call void @llvm.lifetime.start.p0(i64 4, ptr %10) #10
  %12 = load ptr, ptr %4, align 8
  %13 = icmp eq ptr %12, null
  br i1 %13, label %20, label %14

14:                                               ; preds = %2
  %15 = load ptr, ptr %4, align 8
  %16 = getelementptr inbounds nuw %struct.uv_pipe_s, ptr %15, i32 0, i32 13
  %17 = getelementptr inbounds nuw %struct.uv__io_s, ptr %16, i32 0, i32 5
  %18 = load i32, ptr %17, align 8
  %19 = icmp eq i32 %18, -1
  br i1 %19, label %20, label %21

20:                                               ; preds = %14, %2
  store i32 -9, ptr %3, align 4
  store i32 1, ptr %11, align 4
  br label %87

21:                                               ; preds = %14
  %22 = load i32, ptr %5, align 4
  %23 = icmp ne i32 %22, 1
  br i1 %23, label %24, label %31

24:                                               ; preds = %21
  %25 = load i32, ptr %5, align 4
  %26 = icmp ne i32 %25, 2
  br i1 %26, label %27, label %31

27:                                               ; preds = %24
  %28 = load i32, ptr %5, align 4
  %29 = icmp ne i32 %28, 3
  br i1 %29, label %30, label %31

30:                                               ; preds = %27
  store i32 -22, ptr %3, align 4
  store i32 1, ptr %11, align 4
  br label %87

31:                                               ; preds = %27, %24, %21
  store i64 4097, ptr %9, align 8
  %32 = load ptr, ptr %4, align 8
  %33 = getelementptr inbounds [4097 x i8], ptr %8, i64 0, i64 0
  %34 = call i32 @uv_pipe_getsockname(ptr noundef %32, ptr noundef %33, ptr noundef %9)
  store i32 %34, ptr %10, align 4
  %35 = load i32, ptr %10, align 4
  %36 = icmp ne i32 %35, 0
  br i1 %36, label %37, label %39

37:                                               ; preds = %31
  %38 = load i32, ptr %10, align 4
  store i32 %38, ptr %3, align 4
  store i32 1, ptr %11, align 4
  br label %87

39:                                               ; preds = %31
  %40 = getelementptr inbounds [4097 x i8], ptr %8, i64 0, i64 0
  %41 = call i32 @uv__stat(ptr noundef %40, ptr noundef %7)
  %42 = icmp eq i32 %41, -1
  br i1 %42, label %43, label %47

43:                                               ; preds = %39
  %44 = call ptr @__errno_location() #11
  %45 = load i32, ptr %44, align 4
  %46 = sub nsw i32 0, %45
  store i32 %46, ptr %3, align 4
  store i32 1, ptr %11, align 4
  br label %87

47:                                               ; preds = %39
  store i32 0, ptr %6, align 4
  %48 = load i32, ptr %5, align 4
  %49 = and i32 %48, 1
  %50 = icmp ne i32 %49, 0
  br i1 %50, label %51, label %54

51:                                               ; preds = %47
  %52 = load i32, ptr %6, align 4
  %53 = or i32 %52, 292
  store i32 %53, ptr %6, align 4
  br label %54

54:                                               ; preds = %51, %47
  %55 = load i32, ptr %5, align 4
  %56 = and i32 %55, 2
  %57 = icmp ne i32 %56, 0
  br i1 %57, label %58, label %61

58:                                               ; preds = %54
  %59 = load i32, ptr %6, align 4
  %60 = or i32 %59, 146
  store i32 %60, ptr %6, align 4
  br label %61

61:                                               ; preds = %58, %54
  %62 = getelementptr inbounds nuw %struct.stat, ptr %7, i32 0, i32 3
  %63 = load i32, ptr %62, align 8
  %64 = load i32, ptr %6, align 4
  %65 = and i32 %63, %64
  %66 = load i32, ptr %6, align 4
  %67 = icmp eq i32 %65, %66
  br i1 %67, label %68, label %69

68:                                               ; preds = %61
  store i32 0, ptr %3, align 4
  store i32 1, ptr %11, align 4
  br label %87

69:                                               ; preds = %61
  %70 = load i32, ptr %6, align 4
  %71 = getelementptr inbounds nuw %struct.stat, ptr %7, i32 0, i32 3
  %72 = load i32, ptr %71, align 8
  %73 = or i32 %72, %70
  store i32 %73, ptr %71, align 8
  %74 = getelementptr inbounds [4097 x i8], ptr %8, i64 0, i64 0
  %75 = getelementptr inbounds nuw %struct.stat, ptr %7, i32 0, i32 3
  %76 = load i32, ptr %75, align 8
  %77 = call i32 @chmod(ptr noundef %74, i32 noundef %76) #10
  store i32 %77, ptr %10, align 4
  %78 = load i32, ptr %10, align 4
  %79 = icmp ne i32 %78, -1
  br i1 %79, label %80, label %81

80:                                               ; preds = %69
  br label %85

81:                                               ; preds = %69
  %82 = call ptr @__errno_location() #11
  %83 = load i32, ptr %82, align 4
  %84 = sub nsw i32 0, %83
  br label %85

85:                                               ; preds = %81, %80
  %86 = phi i32 [ 0, %80 ], [ %84, %81 ]
  store i32 %86, ptr %3, align 4
  store i32 1, ptr %11, align 4
  br label %87

87:                                               ; preds = %85, %68, %43, %37, %30, %20
  call void @llvm.lifetime.end.p0(i64 4, ptr %10) #10
  call void @llvm.lifetime.end.p0(i64 8, ptr %9) #10
  call void @llvm.lifetime.end.p0(i64 4097, ptr %8) #10
  call void @llvm.lifetime.end.p0(i64 144, ptr %7) #10
  call void @llvm.lifetime.end.p0(i64 4, ptr %6) #10
  %88 = load i32, ptr %3, align 4
  ret i32 %88
}