; Function Attrs: nounwind uwtable
define dso_local i32 @uv_pipe_chmod(ptr noundef %0, i32 noundef %1) local_unnamed_addr #0 {
  %3 = alloca %struct.sockaddr_un, align 2
  %4 = alloca i32, align 4
  %5 = alloca %struct.stat, align 8
  %6 = alloca [4097 x i8], align 16
  call void @llvm.lifetime.start.p0(i64 144, ptr nonnull %5) #12
  call void @llvm.lifetime.start.p0(i64 4097, ptr nonnull %6) #12
  %7 = icmp eq ptr %0, null
  br i1 %7, label %61, label %8

8:                                                ; preds = %2
  %9 = getelementptr inbounds nuw i8, ptr %0, i64 184
  %10 = load i32, ptr %9, align 8
  %11 = icmp eq i32 %10, -1
  br i1 %11, label %61, label %12

12:                                               ; preds = %8
  %13 = add i32 %1, -4
  %or.cond3 = icmp ult i32 %13, -3
  br i1 %or.cond3, label %61, label %14

14:                                               ; preds = %12
  call void @llvm.lifetime.start.p0(i64 110, ptr nonnull %3) #12
  call void @llvm.lifetime.start.p0(i64 4, ptr nonnull %4) #12
  store i32 110, ptr %4, align 4
  call void @llvm.memset.p0.i64(ptr noundef nonnull align 2 dereferenceable(110) %3, i8 0, i64 110, i1 false)
  %15 = call i32 @uv__getsockpeername(ptr noundef nonnull %0, ptr noundef nonnull @getsockname, ptr noundef nonnull %3, ptr noundef nonnull %4) #12
  %16 = icmp slt i32 %15, 0
  br i1 %16, label %uv_pipe_getsockname.exit, label %17

17:                                               ; preds = %14
  %18 = getelementptr inbounds nuw i8, ptr %3, i64 2
  %19 = load i8, ptr %18, align 2
  %20 = icmp eq i8 %19, 0
  br i1 %20, label %21, label %25

21:                                               ; preds = %17
  %22 = load i32, ptr %4, align 4
  %23 = zext i32 %22 to i64
  %24 = add nsw i64 %23, -2
  br label %32

25:                                               ; preds = %17
  %26 = call ptr @memchr(ptr noundef nonnull dereferenceable(1) %18, i32 noundef 0, i64 noundef 108) #13
  %27 = icmp eq ptr %26, null
  %28 = getelementptr inbounds nuw i8, ptr %3, i64 110
  %spec.select.i.i = select i1 %27, ptr %28, ptr %26
  %29 = ptrtoint ptr %spec.select.i.i to i64
  %30 = ptrtoint ptr %18 to i64
  %31 = sub i64 %29, %30
  br label %32

32:                                               ; preds = %25, %21
  %storemerge.in.i.i = phi i64 [ %31, %25 ], [ %24, %21 ]
  %.020.i.i = phi i64 [ 1, %25 ], [ 0, %21 ]
  %33 = and i64 %storemerge.in.i.i, 4294967295
  %34 = add nuw nsw i64 %33, %.020.i.i
  %35 = icmp samesign ugt i64 %34, 4097
  br i1 %35, label %uv_pipe_getsockname.exit, label %36

36:                                               ; preds = %32
  call void @llvm.memcpy.p0.p0.i64(ptr nonnull align 16 %6, ptr nonnull align 2 %18, i64 %33, i1 false)
  %37 = load i8, ptr %6, align 16
  %.not.i.i = icmp eq i8 %37, 0
  br i1 %.not.i.i, label %40, label %38

38:                                               ; preds = %36
  %39 = getelementptr inbounds nuw i8, ptr %6, i64 %33
  store i8 0, ptr %39, align 1
  br label %40

uv_pipe_getsockname.exit:                         ; preds = %32, %14
  %.0.i.i = phi i32 [ %15, %14 ], [ -105, %32 ]
  call void @llvm.lifetime.end.p0(i64 4, ptr nonnull %4) #12
  call void @llvm.lifetime.end.p0(i64 110, ptr nonnull %3) #12
  br label %61

40:                                               ; preds = %38, %36
  call void @llvm.lifetime.end.p0(i64 4, ptr nonnull %4) #12
  call void @llvm.lifetime.end.p0(i64 110, ptr nonnull %3) #12
  %41 = call noundef i32 @stat64(ptr noundef nonnull readonly %6, ptr noundef nonnull %5) #12
  %42 = icmp eq i32 %41, -1
  br i1 %42, label %43, label %47

43:                                               ; preds = %40
  %44 = tail call ptr @__errno_location() #14
  %45 = load i32, ptr %44, align 4
  %46 = sub nsw i32 0, %45
  br label %61

47:                                               ; preds = %40
  %48 = and i32 %1, 1
  %.not22 = icmp eq i32 %48, 0
  %spec.select = select i1 %.not22, i32 0, i32 292
  %.not23 = icmp samesign ult i32 %1, 2
  %49 = or disjoint i32 %spec.select, 146
  %.1 = select i1 %.not23, i32 %spec.select, i32 %49
  %50 = getelementptr inbounds nuw i8, ptr %5, i64 24
  %51 = load i32, ptr %50, align 8
  %52 = and i32 %51, %.1
  %53 = icmp eq i32 %52, %.1
  br i1 %53, label %61, label %54

54:                                               ; preds = %47
  %55 = or i32 %51, %.1
  %56 = call i32 @chmod(ptr noundef nonnull %6, i32 noundef %55) #12
  %.not24 = icmp eq i32 %56, -1
  br i1 %.not24, label %57, label %61

57:                                               ; preds = %54
  %58 = tail call ptr @__errno_location() #14
  %59 = load i32, ptr %58, align 4
  %60 = sub nsw i32 0, %59
  br label %61

61:                                               ; preds = %uv_pipe_getsockname.exit, %57, %54, %47, %12, %2, %8, %43
  %.019 = phi i32 [ %46, %43 ], [ -9, %8 ], [ -9, %2 ], [ -22, %12 ], [ %.0.i.i, %uv_pipe_getsockname.exit ], [ 0, %47 ], [ %60, %57 ], [ 0, %54 ]
  call void @llvm.lifetime.end.p0(i64 4097, ptr nonnull %6) #12
  call void @llvm.lifetime.end.p0(i64 144, ptr nonnull %5) #12
  ret i32 %.019
}